target datalayout = "e-m:e-p270:32:32-p271:32:32-p272:64:64-i64:64-i128:128-f80:128-n8:16:32:64-S128"
target triple = "x86_64-pc-linux-gnu"

%struct.H5F_t = type { ptr, ptr, ptr, ptr, i32, ptr, i8, i8, ptr, i32 }
%struct.H5F_shared_t = type { ptr, ptr, ptr, i8, i32, i32, %struct.H5F_mtab_t, ptr, i8, i8, i64, i32, i32, i64, i64, ptr, ptr, %struct.H5AC_cache_config_t, %struct.H5AC_cache_image_config_t, i8, i8, ptr, i64, i32, i8, i64, i64, double, i64, i64, i64, i32, i32, i32, i8, i32, ptr, ptr, ptr, ptr, i8, i8, i8, i64, i64, ptr, ptr, i32, i64, i8, i32, i8, i64, i8, [13 x i32], [13 x i64], [13 x ptr], i8, i64, i64, [7 x i32], [7 x i32], %struct.H5F_blk_aggr_t, %struct.H5F_blk_aggr_t, i64, i64, %struct.H5F_meta_accum_t, i32, i32, [30 x ptr], %struct.H5F_object_flush_t, i8, ptr }
%struct.H5F_mtab_t = type { i32, i32, ptr }
%struct.H5AC_cache_config_t = type { i32, i8, i8, i8, [1025 x i8], i8, i8, i64, double, i64, i64, i64, i32, double, double, i8, i64, i32, double, double, i32, double, double, i8, i64, i32, i8, double, i64, i32 }
%struct.H5AC_cache_image_config_t = type { i32, i8, i8, i32 }
%struct.H5F_blk_aggr_t = type { i64, i64, i64, i64, i64 }
%struct.H5F_meta_accum_t = type { ptr, i64, i64, i64, i64, i64, i8 }
%struct.H5F_object_flush_t = type { ptr, ptr }
%struct.H5F_retry_info_t = type { i32, [21 x ptr] }

@.str.2 = private unnamed_addr constant [100 x i8] c"generated/home/dtcxzyw/WorkSpace/Projects/compilers/llvm-opt-benchmark/bench/hdf5/hdf5/src/H5Fint.c\00", align 1
@H5E_RESOURCE_g = external global i64, align 8
@H5E_NOSPACE_g = external global i64, align 8
@.str.64 = private unnamed_addr constant [25 x i8] c"memory allocation failed\00", align 1
@__func__.H5F_get_metadata_read_retry_info = private unnamed_addr constant [33 x i8] c"H5F_get_metadata_read_retry_info\00", align 1

; Function Attrs: nounwind uwtable
define i32 @H5F_get_metadata_read_retry_info(ptr noundef %0, ptr noundef %1) #0 {
  %3 = alloca ptr, align 8
  %4 = alloca ptr, align 8
  %5 = alloca i32, align 4
  %6 = alloca i32, align 4
  %7 = alloca i64, align 8
  %8 = alloca i32, align 4
  %9 = alloca i8, align 1
  store ptr %0, ptr %3, align 8
  store ptr %1, ptr %4, align 8
  store i32 0, ptr %8, align 4
  store i8 0, ptr %9, align 1
  %10 = load ptr, ptr %3, align 8
  %11 = getelementptr inbounds %struct.H5F_t, ptr %10, i32 0, i32 2
  %12 = load ptr, ptr %11, align 8
  %13 = getelementptr inbounds %struct.H5F_shared_t, ptr %12, i32 0, i32 68
  %14 = load i32, ptr %13, align 4
  %15 = load ptr, ptr %4, align 8
  %16 = getelementptr inbounds %struct.H5F_retry_info_t, ptr %15, i32 0, i32 0
  store i32 %14, ptr %16, align 8
  %17 = load ptr, ptr %4, align 8
  %18 = getelementptr inbounds %struct.H5F_retry_info_t, ptr %17, i32 0, i32 1
  %19 = getelementptr inbounds [21 x ptr], ptr %18, i64 0, i64 0
  call void @llvm.memset.p0.i64(ptr align 8 %19, i8 0, i64 168, i1 false)
  %20 = load ptr, ptr %4, align 8
  %21 = getelementptr inbounds %struct.H5F_retry_info_t, ptr %20, i32 0, i32 0
  %22 = load i32, ptr %21, align 8
  %23 = icmp ne i32 %22, 0
  br i1 %23, label %27, label %24

24:                                               ; preds = %2
  br label %25

25:                                               ; preds = %24
  store i32 0, ptr %8, align 4
  br label %97

26:                                               ; No predecessors!
  br label %27

27:                                               ; preds = %26, %2
  %28 = load ptr, ptr %4, align 8
  %29 = getelementptr inbounds %struct.H5F_retry_info_t, ptr %28, i32 0, i32 0
  %30 = load i32, ptr %29, align 8
  %31 = zext i32 %30 to i64
  %32 = mul i64 %31, 4
  store i64 %32, ptr %7, align 8
  store i32 0, ptr %6, align 4
  store i32 0, ptr %5, align 4
  br label %33

33:                                               ; preds = %93, %27
  %34 = load i32, ptr %5, align 4
  %35 = icmp ult i32 %34, 30
  br i1 %35, label %36, label %96

36:                                               ; preds = %33
  %37 = load i32, ptr %5, align 4
  switch i32 %37, label %91 [
    i32 5, label %38
    i32 6, label %38
    i32 7, label %38
    i32 8, label %38
    i32 9, label %38
    i32 10, label %38
    i32 11, label %38
    i32 12, label %38
    i32 13, label %38
    i32 14, label %38
    i32 15, label %38
    i32 16, label %38
    i32 17, label %38
    i32 18, label %38
    i32 19, label %38
    i32 20, label %38
    i32 21, label %38
    i32 22, label %38
    i32 23, label %38
    i32 24, label %38
    i32 25, label %38
  ]

38:                                               ; preds = %36, %36, %36, %36, %36, %36, %36, %36, %36, %36, %36, %36, %36, %36, %36, %36, %36, %36, %36, %36, %36
  %39 = load ptr, ptr %3, align 8
  %40 = getelementptr inbounds %struct.H5F_t, ptr %39, i32 0, i32 2
  %41 = load ptr, ptr %40, align 8
  %42 = getelementptr inbounds %struct.H5F_shared_t, ptr %41, i32 0, i32 69
  %43 = load i32, ptr %5, align 4
  %44 = zext i32 %43 to i64
  %45 = getelementptr inbounds [30 x ptr], ptr %42, i64 0, i64 %44
  %46 = load ptr, ptr %45, align 8
  %47 = icmp ne ptr %46, null
  br i1 %47, label %48, label %88

48:                                               ; preds = %38
  %49 = load i64, ptr %7, align 8
  %50 = call noalias ptr @malloc(i64 noundef %49) #12
  %51 = load ptr, ptr %4, align 8
  %52 = getelementptr inbounds %struct.H5F_retry_info_t, ptr %51, i32 0, i32 1
  %53 = load i32, ptr %6, align 4
  %54 = zext i32 %53 to i64
  %55 = getelementptr inbounds [21 x ptr], ptr %52, i64 0, i64 %54
  store ptr %50, ptr %55, align 8
  %56 = icmp eq ptr null, %50
  br i1 %56, label %57, label %72

57:                                               ; preds = %48
  br label %58

58:                                               ; preds = %57
  br label %59

59:                                               ; preds = %58
  br label %60

60:                                               ; preds = %59
  %61 = load i64, ptr @H5E_RESOURCE_g, align 8
  %62 = load i64, ptr @H5E_NOSPACE_g, align 8
  %63 = call i32 (ptr, ptr, i32, i64, i64, ptr, ...) @H5E_printf_stack(ptr noundef @.str.2, ptr noundef @__func__.H5F_get_metadata_read_retry_info, i32 noundef 3659, i64 noundef %61, i64 noundef %62, ptr noundef @.str.64)
  br label %64

64:                                               ; preds = %60
  store i8 1, ptr %9, align 1
  %65 = load i8, ptr %9, align 1
  %66 = trunc i8 %65 to i1
  %67 = zext i1 %66 to i8
  store i8 %67, ptr %9, align 1
  br label %68

68:                                               ; preds = %64
  br label %69

69:                                               ; preds = %68
  store i32 -1, ptr %8, align 4
  br label %97

70:                                               ; No predecessors!
  br label %71

71:                                               ; preds = %70
  br label %72

72:                                               ; preds = %71, %48
  %73 = load ptr, ptr %4, align 8
  %74 = getelementptr inbounds %struct.H5F_retry_info_t, ptr %73, i32 0, i32 1
  %75 = load i32, ptr %6, align 4
  %76 = zext i32 %75 to i64
  %77 = getelementptr inbounds [21 x ptr], ptr %74, i64 0, i64 %76
  %78 = load ptr, ptr %77, align 8
  %79 = load ptr, ptr %3, align 8
  %80 = getelementptr inbounds %struct.H5F_t, ptr %79, i32 0, i32 2
  %81 = load ptr, ptr %80, align 8
  %82 = getelementptr inbounds %struct.H5F_shared_t, ptr %81, i32 0, i32 69
  %83 = load i32, ptr %5, align 4
  %84 = zext i32 %83 to i64
  %85 = getelementptr inbounds [30 x ptr], ptr %82, i64 0, i64 %84
  %86 = load ptr, ptr %85, align 8
  %87 = load i64, ptr %7, align 8
  call void @llvm.memcpy.p0.p0.i64(ptr align 4 %78, ptr align 4 %86, i64 %87, i1 false)
  br label %88

88:                                               ; preds = %72, %38
  %89 = load i32, ptr %6, align 4
  %90 = add i32 %89, 1
  store i32 %90, ptr %6, align 4
  br label %92

91:                                               ; preds = %36
  br label %92

92:                                               ; preds = %91, %88
  br label %93

93:                                               ; preds = %92
  %94 = load i32, ptr %5, align 4
  %95 = add i32 %94, 1
  store i32 %95, ptr %5, align 4
  br label %33

96:                                               ; preds = %33
  br label %97

97:                                               ; preds = %96, %69, %25
  %98 = load i32, ptr %8, align 4
  ret i32 %98
}