; Function Attrs: nounwind uwtable
define range(i32 -1, 1) i32 @H5F_get_metadata_read_retry_info(ptr nocapture noundef readonly %0, ptr nocapture noundef writeonly %1) local_unnamed_addr #0 {
  %3 = getelementptr inbounds i8, ptr %0, i64 16
  %4 = load ptr, ptr %3, align 8
  %5 = getelementptr inbounds i8, ptr %4, i64 2060
  %6 = load i32, ptr %5, align 4
  store i32 %6, ptr %1, align 8
  %7 = getelementptr inbounds i8, ptr %1, i64 8
  tail call void @llvm.memset.p0.i64(ptr noundef nonnull align 8 dereferenceable(168) %7, i8 0, i64 168, i1 false)
  %.not = icmp eq i32 %6, 0
  br i1 %.not, label %.loopexit, label %8

8:                                                ; preds = %2
  %9 = zext i32 %6 to i64
  %10 = shl nuw nsw i64 %9, 2
  br label %11

11:                                               ; preds = %8, %35
  %indvars.iv = phi i64 [ 0, %8 ], [ %indvars.iv.next, %35 ]
  %.02125 = phi i32 [ 0, %8 ], [ %.1, %35 ]
  %12 = trunc i64 %indvars.iv to i32
  %13 = add i32 %12, -5
  %switch = icmp ult i32 %13, 21
  br i1 %switch, label %14, label %35

14:                                               ; preds = %11
  %15 = load ptr, ptr %3, align 8
  %16 = getelementptr inbounds i8, ptr %15, i64 2064
  %17 = getelementptr inbounds [30 x ptr], ptr %16, i64 0, i64 %indvars.iv
  %18 = load ptr, ptr %17, align 8
  %.not24 = icmp eq ptr %18, null
  br i1 %.not24, label %33, label %19

19:                                               ; preds = %14
  %20 = tail call noalias ptr @malloc(i64 noundef %10) #24
  %21 = zext i32 %.02125 to i64
  %22 = getelementptr inbounds [21 x ptr], ptr %7, i64 0, i64 %21
  store ptr %20, ptr %22, align 8
  %23 = icmp eq ptr %20, null
  br i1 %23, label %24, label %28

24:                                               ; preds = %19
  %25 = load i64, ptr @H5E_RESOURCE_g, align 8
  %26 = load i64, ptr @H5E_NOSPACE_g, align 8
  %27 = tail call i32 (ptr, ptr, i32, i64, i64, ptr, ...) @H5E_printf_stack(ptr noundef nonnull @.str.2, ptr noundef nonnull @__func__.H5F_get_metadata_read_retry_info, i32 noundef 3659, i64 noundef %25, i64 noundef %26, ptr noundef nonnull @.str.64) #22
  br label %.loopexit

28:                                               ; preds = %19
  %29 = load ptr, ptr %3, align 8
  %30 = getelementptr inbounds i8, ptr %29, i64 2064
  %31 = getelementptr inbounds [30 x ptr], ptr %30, i64 0, i64 %indvars.iv
  %32 = load ptr, ptr %31, align 8
  tail call void @llvm.memcpy.p0.p0.i64(ptr nonnull align 4 %20, ptr align 4 %32, i64 %10, i1 false)
  br label %33

33:                                               ; preds = %28, %14
  %34 = add i32 %.02125, 1
  br label %35

35:                                               ; preds = %11, %33
  %.1 = phi i32 [ %.02125, %11 ], [ %34, %33 ]
  %indvars.iv.next = add nuw nsw i64 %indvars.iv, 1
  %exitcond.not = icmp eq i64 %indvars.iv.next, 30
  br i1 %exitcond.not, label %.loopexit, label %11

.loopexit:                                        ; preds = %35, %2, %24
  %.0 = phi i32 [ -1, %24 ], [ 0, %2 ], [ 0, %35 ]
  ret i32 %.0
}